; Function Attrs: mustprogress nounwind uwtable
define dso_local void @_ZN4llvm16DecodeUNPCKLMaskEjjRNS_15SmallVectorImplIiEE(i32 noundef %0, i32 noundef %1, ptr noundef nonnull align 8 dereferenceable(16) %2) local_unnamed_addr #0 {
  %4 = mul i32 %1, %0
  %5 = tail call i32 @llvm.umax.i32(i32 %4, i32 128)
  %spec.store.select = lshr i32 %5, 7
  %6 = udiv i32 %0, %spec.store.select
  %.not26 = icmp eq i32 %0, 0
  br i1 %.not26, label %._crit_edge30, label %.lr.ph29

.lr.ph29:                                         ; preds = %3
  %7 = lshr i32 %6, 1
  %8 = getelementptr inbounds nuw i8, ptr %2, i64 16
  %.not2124 = icmp ult i32 %6, 2
  br label %9

9:                                                ; preds = %.lr.ph29, %._crit_edge
  %.027 = phi i32 [ 0, %.lr.ph29 ], [ %31, %._crit_edge ]
  %10 = add i32 %.027, %7
  br i1 %.not2124, label %._crit_edge, label %.lr.ph

.lr.ph:                                           ; preds = %9, %_ZN4llvm23SmallVectorTemplateBaseIiLb1EE9push_backEi.exit23
  %.01925 = phi i32 [ %30, %_ZN4llvm23SmallVectorTemplateBaseIiLb1EE9push_backEi.exit23 ], [ %.027, %9 ]
  %11 = tail call noundef i64 @_ZNK4llvm15SmallVectorBaseIjE4sizeEv(ptr noundef nonnull align 8 dereferenceable(16) %2) #4
  %12 = add i64 %11, 1
  %13 = tail call noundef i64 @_ZNK4llvm15SmallVectorBaseIjE8capacityEv(ptr noundef nonnull align 8 dereferenceable(16) %2) #4
  %.not.i.i.i = icmp ugt i64 %12, %13
  br i1 %.not.i.i.i, label %14, label %_ZN4llvm23SmallVectorTemplateBaseIiLb1EE9push_backEi.exit

14:                                               ; preds = %.lr.ph
  tail call void @_ZN4llvm15SmallVectorBaseIjE8grow_podEPvmm(ptr noundef nonnull align 8 dereferenceable(16) %2, ptr noundef nonnull %8, i64 noundef %12, i64 noundef 4) #4
  br label %_ZN4llvm23SmallVectorTemplateBaseIiLb1EE9push_backEi.exit

_ZN4llvm23SmallVectorTemplateBaseIiLb1EE9push_backEi.exit: ; preds = %.lr.ph, %14
  %15 = load ptr, ptr %2, align 8
  %16 = tail call noundef i64 @_ZNK4llvm15SmallVectorBaseIjE4sizeEv(ptr noundef nonnull align 8 dereferenceable(16) %2) #4
  %17 = getelementptr inbounds i32, ptr %15, i64 %16
  store i32 %.01925, ptr %17, align 1
  %18 = tail call noundef i64 @_ZNK4llvm15SmallVectorBaseIjE4sizeEv(ptr noundef nonnull align 8 dereferenceable(16) %2) #4
  %19 = add i64 %18, 1
  tail call void @_ZN4llvm15SmallVectorBaseIjE8set_sizeEm(ptr noundef nonnull align 8 dereferenceable(16) %2, i64 noundef %19) #4
  %20 = add i32 %.01925, %0
  %21 = tail call noundef i64 @_ZNK4llvm15SmallVectorBaseIjE4sizeEv(ptr noundef nonnull align 8 dereferenceable(16) %2) #4
  %22 = add i64 %21, 1
  %23 = tail call noundef i64 @_ZNK4llvm15SmallVectorBaseIjE8capacityEv(ptr noundef nonnull align 8 dereferenceable(16) %2) #4
  %.not.i.i.i22 = icmp ugt i64 %22, %23
  br i1 %.not.i.i.i22, label %24, label %_ZN4llvm23SmallVectorTemplateBaseIiLb1EE9push_backEi.exit23

24:                                               ; preds = %_ZN4llvm23SmallVectorTemplateBaseIiLb1EE9push_backEi.exit
  tail call void @_ZN4llvm15SmallVectorBaseIjE8grow_podEPvmm(ptr noundef nonnull align 8 dereferenceable(16) %2, ptr noundef nonnull %8, i64 noundef %22, i64 noundef 4) #4
  br label %_ZN4llvm23SmallVectorTemplateBaseIiLb1EE9push_backEi.exit23

_ZN4llvm23SmallVectorTemplateBaseIiLb1EE9push_backEi.exit23: ; preds = %_ZN4llvm23SmallVectorTemplateBaseIiLb1EE9push_backEi.exit, %24
  %25 = load ptr, ptr %2, align 8
  %26 = tail call noundef i64 @_ZNK4llvm15SmallVectorBaseIjE4sizeEv(ptr noundef nonnull align 8 dereferenceable(16) %2) #4
  %27 = getelementptr inbounds i32, ptr %25, i64 %26
  store i32 %20, ptr %27, align 1
  %28 = tail call noundef i64 @_ZNK4llvm15SmallVectorBaseIjE4sizeEv(ptr noundef nonnull align 8 dereferenceable(16) %2) #4
  %29 = add i64 %28, 1
  tail call void @_ZN4llvm15SmallVectorBaseIjE8set_sizeEm(ptr noundef nonnull align 8 dereferenceable(16) %2, i64 noundef %29) #4
  %30 = add i32 %.01925, 1
  %.not21 = icmp eq i32 %30, %10
  br i1 %.not21, label %._crit_edge, label %.lr.ph, !llvm.loop !37

._crit_edge:                                      ; preds = %_ZN4llvm23SmallVectorTemplateBaseIiLb1EE9push_backEi.exit23, %9
  %31 = add i32 %.027, %6
  %.not = icmp eq i32 %31, %0
  br i1 %.not, label %._crit_edge30, label %9, !llvm.loop !38

._crit_edge30:                                    ; preds = %._crit_edge, %3
  ret void
}